target datalayout = "e-m:e-p270:32:32-p271:32:32-p272:64:64-i64:64-i128:128-f80:128-n8:16:32:64-S128"
target triple = "x86_64-pc-linux-gnu"

%"class.llvm::SmallVectorBase" = type { ptr, i32, i32 }
%"class.llvm::VirtRegMap" = type { %"class.llvm::MachineFunctionPass", ptr, ptr, ptr, ptr, %"class.llvm::IndexedMap.142", %"class.llvm::IndexedMap.146", %"class.llvm::IndexedMap.153", %"class.llvm::DenseMap.160" }
%"class.llvm::MachineFunctionPass" = type { %"class.llvm::FunctionPass.base", %"class.llvm::MachineFunctionProperties", %"class.llvm::MachineFunctionProperties", %"class.llvm::MachineFunctionProperties" }
%"class.llvm::FunctionPass.base" = type { %"class.llvm::Pass.base" }
%"class.llvm::Pass.base" = type <{ ptr, ptr, ptr, i32 }>
%"class.llvm::MachineFunctionProperties" = type { %"class.std::bitset" }
%"class.std::bitset" = type { %"struct.std::_Base_bitset" }
%"struct.std::_Base_bitset" = type { i64 }
%"class.llvm::IndexedMap.142" = type <{ %"class.llvm::SmallVector.143", %"class.llvm::Register", [4 x i8] }>
%"class.llvm::SmallVector.143" = type { %"class.llvm::SmallVectorImpl.112" }
%"class.llvm::SmallVectorImpl.112" = type { %"class.llvm::SmallVectorTemplateBase.113" }
%"class.llvm::SmallVectorTemplateBase.113" = type { %"class.llvm::SmallVectorTemplateCommon.114" }
%"class.llvm::SmallVectorTemplateCommon.114" = type { %"class.llvm::SmallVectorBase" }
%"class.llvm::Register" = type { i32 }
%"class.llvm::IndexedMap.146" = type <{ %"class.llvm::SmallVector.147", i32, [4 x i8] }>
%"class.llvm::SmallVector.147" = type { %"class.llvm::SmallVectorImpl.148" }
%"class.llvm::SmallVectorImpl.148" = type { %"class.llvm::SmallVectorTemplateBase.149" }
%"class.llvm::SmallVectorTemplateBase.149" = type { %"class.llvm::SmallVectorTemplateCommon.150" }
%"class.llvm::SmallVectorTemplateCommon.150" = type { %"class.llvm::SmallVectorBase" }
%"class.llvm::IndexedMap.153" = type <{ %"class.llvm::SmallVector.154", i32, [4 x i8] }>
%"class.llvm::SmallVector.154" = type { %"class.llvm::SmallVectorImpl.155" }
%"class.llvm::SmallVectorImpl.155" = type { %"class.llvm::SmallVectorTemplateBase.156" }
%"class.llvm::SmallVectorTemplateBase.156" = type { %"class.llvm::SmallVectorTemplateCommon.157" }
%"class.llvm::SmallVectorTemplateCommon.157" = type { %"class.llvm::SmallVectorBase" }
%"class.llvm::DenseMap.160" = type <{ ptr, i32, i32, i32, [4 x i8] }>

; Function Attrs: mustprogress nounwind uwtable
define linkonce_odr hidden noundef i32 @_ZNK4llvm8RegistercvjEv(ptr noundef nonnull align 4 dereferenceable(4) %0) #1 comdat align 2 {
  %2 = alloca ptr, align 8
  store ptr %0, ptr %2, align 8
  %3 = load ptr, ptr %2, align 8
  %4 = getelementptr inbounds nuw %"class.llvm::Register", ptr %3, i32 0, i32 0
  %5 = load i32, ptr %4, align 4
  ret i32 %5
}

; Function Attrs: mustprogress nounwind uwtable
define linkonce_odr hidden noundef ptr @_ZN4llvm25SmallVectorTemplateCommonIivE5beginEv(ptr noundef nonnull align 8 dereferenceable(16) %0) #1 comdat align 2 {
  %2 = alloca ptr, align 8
  store ptr %0, ptr %2, align 8
  %3 = load ptr, ptr %2, align 8
  %4 = getelementptr inbounds nuw %"class.llvm::SmallVectorBase", ptr %3, i32 0, i32 0
  %5 = load ptr, ptr %4, align 8
  ret ptr %5
}

; Function Attrs: mustprogress nounwind uwtable
define linkonce_odr hidden noundef i32 @_ZN4llvm8Register13virtReg2IndexES0_(i32 %0) #1 comdat align 2 {
  %2 = alloca %"class.llvm::Register", align 4
  %3 = getelementptr inbounds nuw %"class.llvm::Register", ptr %2, i32 0, i32 0
  store i32 %0, ptr %3, align 4
  %4 = call noundef i32 @_ZNK4llvm8RegistercvjEv(ptr noundef nonnull align 4 dereferenceable(4) %2)
  %5 = and i32 %4, 2147483647
  ret i32 %5
}

; Function Attrs: mustprogress nounwind uwtable
define linkonce_odr hidden noundef nonnull align 4 dereferenceable(4) ptr @_ZN4llvm25SmallVectorTemplateCommonIivEixEm(ptr noundef nonnull align 8 dereferenceable(16) %0, i64 noundef %1) #1 comdat align 2 {
  %3 = alloca ptr, align 8
  %4 = alloca i64, align 8
  store ptr %0, ptr %3, align 8
  store i64 %1, ptr %4, align 8
  %5 = load ptr, ptr %3, align 8
  %6 = call noundef ptr @_ZN4llvm25SmallVectorTemplateCommonIivE5beginEv(ptr noundef nonnull align 8 dereferenceable(16) %5)
  %7 = load i64, ptr %4, align 8
  %8 = getelementptr inbounds i32, ptr %6, i64 %7
  ret ptr %8
}

; Function Attrs: mustprogress nounwind uwtable
define linkonce_odr hidden noundef i32 @_ZNK4llvm20VirtReg2IndexFunctorclENS_8RegisterE(ptr noundef nonnull align 1 dereferenceable(1) %0, i32 %1) #1 comdat align 2 {
  %3 = alloca %"class.llvm::Register", align 4
  %4 = alloca ptr, align 8
  %5 = alloca %"class.llvm::Register", align 4
  %6 = getelementptr inbounds nuw %"class.llvm::Register", ptr %3, i32 0, i32 0
  store i32 %1, ptr %6, align 4
  store ptr %0, ptr %4, align 8
  call void @llvm.memcpy.p0.p0.i64(ptr align 4 %5, ptr align 4 %3, i64 4, i1 false)
  %7 = getelementptr inbounds nuw %"class.llvm::Register", ptr %5, i32 0, i32 0
  %8 = load i32, ptr %7, align 4
  %9 = call noundef i32 @_ZN4llvm8Register13virtReg2IndexES0_(i32 %8)
  ret i32 %9
}

; Function Attrs: mustprogress nounwind uwtable
define linkonce_odr hidden noundef nonnull align 4 dereferenceable(4) ptr @_ZN4llvm10IndexedMapIiNS_20VirtReg2IndexFunctorEEixENS_8RegisterE(ptr noundef nonnull align 8 dereferenceable(21) %0, i32 %1) #1 comdat align 2 {
  %3 = alloca %"class.llvm::Register", align 4
  %4 = alloca ptr, align 8
  %5 = alloca %"class.llvm::Register", align 4
  %6 = getelementptr inbounds nuw %"class.llvm::Register", ptr %3, i32 0, i32 0
  store i32 %1, ptr %6, align 4
  store ptr %0, ptr %4, align 8
  %7 = load ptr, ptr %4, align 8
  %8 = getelementptr inbounds nuw %"class.llvm::IndexedMap.146", ptr %7, i32 0, i32 0
  %9 = getelementptr inbounds i8, ptr %7, i64 20
  call void @llvm.memcpy.p0.p0.i64(ptr align 4 %5, ptr align 4 %3, i64 4, i1 false)
  %10 = getelementptr inbounds nuw %"class.llvm::Register", ptr %5, i32 0, i32 0
  %11 = load i32, ptr %10, align 4
  %12 = call noundef i32 @_ZNK4llvm20VirtReg2IndexFunctorclENS_8RegisterE(ptr noundef nonnull align 1 dereferenceable(1) %9, i32 %11)
  %13 = zext i32 %12 to i64
  %14 = call noundef nonnull align 4 dereferenceable(4) ptr @_ZN4llvm25SmallVectorTemplateCommonIivEixEm(ptr noundef nonnull align 8 dereferenceable(16) %8, i64 noundef %13)
  ret ptr %14
}

; Function Attrs: mustprogress nounwind uwtable
define linkonce_odr hidden void @_ZN4llvm8RegisterC2Ej(ptr noundef nonnull align 4 dereferenceable(4) %0, i32 noundef %1) unnamed_addr #1 comdat align 2 {
  %3 = alloca ptr, align 8
  %4 = alloca i32, align 4
  store ptr %0, ptr %3, align 8
  store i32 %1, ptr %4, align 4
  %5 = load ptr, ptr %3, align 8
  %6 = getelementptr inbounds nuw %"class.llvm::Register", ptr %5, i32 0, i32 0
  %7 = load i32, ptr %4, align 4
  store i32 %7, ptr %6, align 4
  ret void
}

; Function Attrs: mustprogress nounwind uwtable
define linkonce_odr hidden noundef i32 @_ZNK4llvm8Register2idEv(ptr noundef nonnull align 4 dereferenceable(4) %0) #1 comdat align 2 {
  %2 = alloca ptr, align 8
  store ptr %0, ptr %2, align 8
  %3 = load ptr, ptr %2, align 8
  %4 = getelementptr inbounds nuw %"class.llvm::Register", ptr %3, i32 0, i32 0
  %5 = load i32, ptr %4, align 4
  ret i32 %5
}

; Function Attrs: mustprogress nounwind uwtable
define dso_local void @_ZN4llvm10VirtRegMap20assignVirt2StackSlotENS_8RegisterEi(ptr noundef nonnull align 8 dereferenceable(184) %0, i32 %1, i32 noundef %2) #1 align 2 {
  %4 = alloca %"class.llvm::Register", align 4
  %5 = alloca ptr, align 8
  %6 = alloca i32, align 4
  %7 = alloca %"class.llvm::Register", align 4
  %8 = getelementptr inbounds nuw %"class.llvm::Register", ptr %4, i32 0, i32 0
  store i32 %1, ptr %8, align 4
  store ptr %0, ptr %5, align 8
  store i32 %2, ptr %6, align 4
  %9 = load ptr, ptr %5, align 8
  %10 = load i32, ptr %6, align 4
  %11 = getelementptr inbounds nuw %"class.llvm::VirtRegMap", ptr %9, i32 0, i32 6
  %12 = call noundef i32 @_ZNK4llvm8Register2idEv(ptr noundef nonnull align 4 dereferenceable(4) %4)
  call void @_ZN4llvm8RegisterC2Ej(ptr noundef nonnull align 4 dereferenceable(4) %7, i32 noundef %12)
  %13 = getelementptr inbounds nuw %"class.llvm::Register", ptr %7, i32 0, i32 0
  %14 = load i32, ptr %13, align 4
  %15 = call noundef nonnull align 4 dereferenceable(4) ptr @_ZN4llvm10IndexedMapIiNS_20VirtReg2IndexFunctorEEixENS_8RegisterE(ptr noundef nonnull align 8 dereferenceable(21) %11, i32 %14)
  store i32 %10, ptr %15, align 4
  ret void
}