; Function Attrs: mustprogress nofree norecurse nosync nounwind willreturn memory(write, argmem: readwrite, inaccessiblemem: none) uwtable
define dso_local void @_ZN4llvm10VirtRegMap20assignVirt2StackSlotENS_8RegisterEi(ptr nocapture noundef nonnull readonly align 8 dereferenceable(184) %0, i32 %1, i32 noundef %2) local_unnamed_addr #1 align 2 {
  %4 = getelementptr inbounds nuw i8, ptr %0, i64 112
  %5 = and i32 %1, 2147483647
  %6 = zext nneg i32 %5 to i64
  %7 = load ptr, ptr %4, align 8
  %8 = getelementptr inbounds i32, ptr %7, i64 %6
  store i32 %2, ptr %8, align 4
  ret void
}